; Function Attrs: mustprogress uwtable
define void @_ZN2cv7optflow23createOptFlow_DenseRLOFEv(ptr dead_on_unwind noalias writable writeonly sret(%"struct.cv::Ptr.16") align 8 captures(none) %0) local_unnamed_addr #3 personality ptr @__gxx_personality_v0 {
  %2 = alloca %"struct.cv::Ptr.0", align 8
  %3 = alloca %"struct.cv::Ptr", align 8
  call void @llvm.lifetime.start.p0(i64 16, ptr nonnull %2) #27
  call void @llvm.memset.p0.i64(ptr noundef nonnull align 8 dereferenceable(16) %3, i8 0, i64 16, i1 false)
  invoke void @_ZN2cv7optflow20DenseRLOFOpticalFlow6createENS_3PtrINS0_24RLOFOpticalFlowParameterEEEfNS_5Size_IiEENS0_17InterpolationTypeEiffiibffb(ptr dead_on_unwind nonnull writable sret(%"struct.cv::Ptr.0") align 8 %2, ptr noundef nonnull %3, float noundef 1.000000e+00, i64 25769803782, i32 noundef 1, i32 noundef 128, float noundef 0x3FA99999A0000000, float noundef 9.990000e+02, i32 noundef 15, i32 noundef 100, i1 noundef zeroext true, float noundef 5.000000e+02, float noundef 1.500000e+00, i1 noundef zeroext false)
          to label %_ZNSt12__shared_ptrIN2cv7optflow24RLOFOpticalFlowParameterELN9__gnu_cxx12_Lock_policyE2EED2Ev.exit unwind label %8

_ZNSt12__shared_ptrIN2cv7optflow24RLOFOpticalFlowParameterELN9__gnu_cxx12_Lock_policyE2EED2Ev.exit: ; preds = %1
  %4 = load ptr, ptr %2, align 8, !tbaa !46
  store ptr %4, ptr %0, align 8, !tbaa !60
  %5 = getelementptr inbounds nuw i8, ptr %0, i64 8
  %6 = getelementptr inbounds nuw i8, ptr %2, i64 8
  %7 = load ptr, ptr %6, align 8, !tbaa !31
  store ptr %7, ptr %5, align 8, !tbaa !31
  call void @llvm.lifetime.end.p0(i64 16, ptr nonnull %2) #27
  ret void

8:                                                ; preds = %1
  %9 = landingpad { ptr, i32 }
          cleanup
  call void @_ZNSt12__shared_ptrIN2cv7optflow24RLOFOpticalFlowParameterELN9__gnu_cxx12_Lock_policyE2EED2Ev(ptr noundef nonnull align 8 dereferenceable(16) %3) #27
  call void @llvm.lifetime.end.p0(i64 16, ptr nonnull %2) #27
  resume { ptr, i32 } %9
}